target datalayout = "e-m:e-p270:32:32-p271:32:32-p272:64:64-i64:64-i128:128-f80:128-n8:16:32:64-S128"
target triple = "x86_64-unknown-linux-gnu"

%"class.proxygen::RequestHandlerAdaptor" = type <{ %"class.proxygen::HTTPTransactionHandler", %"class.proxygen::ResponseHandler", i32, [4 x i8] }>
%"class.proxygen::HTTPTransactionHandler" = type { %"struct.proxygen::TraceEventObserver" }
%"struct.proxygen::TraceEventObserver" = type { ptr }
%"class.proxygen::ResponseHandler" = type { ptr, ptr, ptr }

@.str.8 = private unnamed_addr constant [133 x i8] c"generated/home/dtcxzyw/WorkSpace/Projects/compilers/llvm-opt-benchmark/bench/proxygen/proxygen/proxygen/httpserver/ResponseHandler.h\00", align 1
@.str.9 = private unnamed_addr constant [28 x i8] c"'upstream' Must be non NULL\00", align 1

; Function Attrs: mustprogress nounwind uwtable
define linkonce_odr void @_ZN8proxygen18TraceEventObserverD2Ev(ptr noundef nonnull align 8 dereferenceable(8) %this) unnamed_addr #5 comdat align 2 {
entry:
  %this.addr = alloca ptr, align 8
  store ptr %this, ptr %this.addr, align 8
  ret void
}

; Function Attrs: mustprogress nounwind uwtable
define linkonce_odr void @_ZN8proxygen18TraceEventObserverC2Ev(ptr noundef nonnull align 8 dereferenceable(8) %this) unnamed_addr #5 comdat align 2 {
entry:
  %this.addr = alloca ptr, align 8
  store ptr %this, ptr %this.addr, align 8
  %this1 = load ptr, ptr %this.addr, align 8
  store ptr getelementptr inbounds ({ [6 x ptr] }, ptr @_ZTVN8proxygen18TraceEventObserverE, i32 0, i32 0, i32 2), ptr %this1, align 8
  ret void
}

; Function Attrs: mustprogress nounwind uwtable
define linkonce_odr void @_ZN8proxygen22HTTPTransactionHandlerD2Ev(ptr noundef nonnull align 8 dereferenceable(8) %this) unnamed_addr #5 comdat align 2 {
entry:
  %this.addr = alloca ptr, align 8
  store ptr %this, ptr %this.addr, align 8
  %this1 = load ptr, ptr %this.addr, align 8
  call void @_ZN8proxygen18TraceEventObserverD2Ev(ptr noundef nonnull align 8 dereferenceable(8) %this1) #3
  ret void
}

; Function Attrs: mustprogress uwtable
define linkonce_odr void @_ZN8proxygen15ResponseHandlerC2EPNS_14RequestHandlerE(ptr noundef nonnull align 8 dereferenceable(24) %this, ptr noundef %upstream) unnamed_addr #4 comdat align 2 {
entry:
  %this.addr = alloca ptr, align 8
  %upstream.addr = alloca ptr, align 8
  store ptr %this, ptr %this.addr, align 8
  store ptr %upstream, ptr %upstream.addr, align 8
  %this1 = load ptr, ptr %this.addr, align 8
  store ptr getelementptr inbounds ({ [17 x ptr] }, ptr @_ZTVN8proxygen15ResponseHandlerE, i32 0, i32 0, i32 2), ptr %this1, align 8
  %upstream_ = getelementptr inbounds %"class.proxygen::ResponseHandler", ptr %this1, i32 0, i32 1
  %call = call noundef nonnull align 8 dereferenceable(8) ptr @_ZN6google12CheckNotNullIRPN8proxygen14RequestHandlerEEET_PKciS7_OS5_(ptr noundef @.str.8, i32 noundef 47, ptr noundef @.str.9, ptr noundef nonnull align 8 dereferenceable(8) %upstream.addr)
  %0 = load ptr, ptr %call, align 8
  store ptr %0, ptr %upstream_, align 8
  %txn_ = getelementptr inbounds %"class.proxygen::ResponseHandler", ptr %this1, i32 0, i32 2
  store ptr null, ptr %txn_, align 8
  ret void
}

; Function Attrs: mustprogress nounwind uwtable
define linkonce_odr void @_ZN8proxygen22HTTPTransactionHandlerC2Ev(ptr noundef nonnull align 8 dereferenceable(8) %this) unnamed_addr #5 comdat align 2 {
entry:
  %this.addr = alloca ptr, align 8
  store ptr %this, ptr %this.addr, align 8
  %this1 = load ptr, ptr %this.addr, align 8
  call void @_ZN8proxygen18TraceEventObserverC2Ev(ptr noundef nonnull align 8 dereferenceable(8) %this1) #3
  store ptr getelementptr inbounds ({ [27 x ptr] }, ptr @_ZTVN8proxygen22HTTPTransactionHandlerE, i32 0, i32 0, i32 2), ptr %this1, align 8
  ret void
}

; Function Attrs: mustprogress uwtable
define void @_ZN8proxygen21RequestHandlerAdaptorC2EPNS_14RequestHandlerE(ptr noundef nonnull align 8 dereferenceable(36) %this, ptr noundef %requestHandler) unnamed_addr #4 align 2 personality ptr @__gxx_personality_v0 {
entry:
  %this.addr = alloca ptr, align 8
  %requestHandler.addr = alloca ptr, align 8
  %exn.slot = alloca ptr, align 8
  %ehselector.slot = alloca i32, align 4
  store ptr %this, ptr %this.addr, align 8
  store ptr %requestHandler, ptr %requestHandler.addr, align 8
  %this1 = load ptr, ptr %this.addr, align 8
  call void @_ZN8proxygen22HTTPTransactionHandlerC2Ev(ptr noundef nonnull align 8 dereferenceable(8) %this1) #3
  %0 = getelementptr inbounds i8, ptr %this1, i64 8
  %1 = load ptr, ptr %requestHandler.addr, align 8
  invoke void @_ZN8proxygen15ResponseHandlerC2EPNS_14RequestHandlerE(ptr noundef nonnull align 8 dereferenceable(24) %0, ptr noundef %1)
          to label %invoke.cont unwind label %lpad

invoke.cont:                                      ; preds = %entry
  store ptr getelementptr inbounds ({ [40 x ptr], [17 x ptr] }, ptr @_ZTVN8proxygen21RequestHandlerAdaptorE, i32 0, i32 0, i32 2), ptr %this1, align 8
  %add.ptr = getelementptr inbounds i8, ptr %this1, i64 8
  store ptr getelementptr inbounds ({ [40 x ptr], [17 x ptr] }, ptr @_ZTVN8proxygen21RequestHandlerAdaptorE, i32 0, i32 1, i32 2), ptr %add.ptr, align 8
  %err_ = getelementptr inbounds %"class.proxygen::RequestHandlerAdaptor", ptr %this1, i32 0, i32 2
  store i32 0, ptr %err_, align 8
  ret void

lpad:                                             ; preds = %entry
  %2 = landingpad { ptr, i32 }
          cleanup
  %3 = extractvalue { ptr, i32 } %2, 0
  store ptr %3, ptr %exn.slot, align 8
  %4 = extractvalue { ptr, i32 } %2, 1
  store i32 %4, ptr %ehselector.slot, align 4
  call void @_ZN8proxygen22HTTPTransactionHandlerD2Ev(ptr noundef nonnull align 8 dereferenceable(8) %this1) #3
  br label %eh.resume

eh.resume:                                        ; preds = %lpad
  %exn = load ptr, ptr %exn.slot, align 8
  %sel = load i32, ptr %ehselector.slot, align 4
  %lpad.val = insertvalue { ptr, i32 } poison, ptr %exn, 0
  %lpad.val2 = insertvalue { ptr, i32 } %lpad.val, i32 %sel, 1
  resume { ptr, i32 } %lpad.val2
}